target datalayout = "e-m:e-p270:32:32-p271:32:32-p272:64:64-i64:64-i128:128-f80:128-n8:16:32:64-S128"
target triple = "x86_64-pc-linux-gnu"

%struct.expert_field = type { i32, i32 }
%struct.MessageHeader = type { [4 x i8], %struct.Version, i8, i8, i32, i32, i32, ptr }
%struct.Version = type { i8, i8 }

@hf_GIAS_CreateRequest_complete_return = internal global i32 0, align 4
@hf_GIAS_CreateRequest_complete_new_products_loop = internal global i32 0, align 4
@ei_gias_unknown_giop_msg = internal global %struct.expert_field zeroinitializer, align 4
@ei_gias_unknown_exception = internal global %struct.expert_field zeroinitializer, align 4
@ett_giop_sequence = internal global i32 0, align 4
@boundary = internal global i32 12, align 4
@.str.826 = private unnamed_addr constant [21 x i8] c"Unknown exception %d\00", align 1
@.str.827 = private unnamed_addr constant [24 x i8] c"Unknown GIOP message %d\00", align 1
@.str.845 = private unnamed_addr constant [50 x i8] c"sequence GIAS_CreateRequest_complete_new_products\00", align 1

; Function Attrs: null_pointer_is_valid sspstrong uwtable
define internal void @decode_GIAS_CreateRequest_complete(ptr noundef %0, ptr noundef %1, ptr noundef %2, ptr noundef %3, ptr noundef %4, ptr noundef %5, ptr noundef %6, i1 noundef zeroext %7) #0 {
  %9 = alloca ptr, align 8
  %10 = alloca ptr, align 8
  %11 = alloca ptr, align 8
  %12 = alloca ptr, align 8
  %13 = alloca ptr, align 8
  %14 = alloca ptr, align 8
  %15 = alloca ptr, align 8
  %16 = alloca i8, align 1
  %17 = alloca i32, align 4
  %18 = alloca i32, align 4
  %19 = alloca i32, align 4
  %20 = alloca ptr, align 8
  store ptr %0, ptr %9, align 8
  store ptr %1, ptr %10, align 8
  store ptr %2, ptr %11, align 8
  store ptr %3, ptr %12, align 8
  store ptr %4, ptr %13, align 8
  store ptr %5, ptr %14, align 8
  store ptr %6, ptr %15, align 8
  %21 = zext i1 %7 to i8
  store i8 %21, ptr %16, align 1
  call void @llvm.lifetime.start.p0(i64 4, ptr %17) #6
  call void @llvm.lifetime.start.p0(i64 4, ptr %18) #6
  call void @llvm.lifetime.start.p0(i64 4, ptr %19) #6
  %22 = load ptr, ptr %14, align 8
  %23 = getelementptr inbounds nuw %struct.MessageHeader, ptr %22, i32 0, i32 3
  %24 = load i8, ptr %23, align 1
  %25 = zext i8 %24 to i32
  switch i32 %25, label %91 [
    i32 0, label %99
    i32 1, label %26
  ]

26:                                               ; preds = %8
  %27 = load ptr, ptr %14, align 8
  %28 = getelementptr inbounds nuw %struct.MessageHeader, ptr %27, i32 0, i32 6
  %29 = load i32, ptr %28, align 8
  switch i32 %29, label %83 [
    i32 0, label %30
    i32 1, label %90
  ]

30:                                               ; preds = %26
  %31 = load ptr, ptr %9, align 8
  %32 = load ptr, ptr %13, align 8
  %33 = load i8, ptr %16, align 1, !range !6, !noundef !7
  %34 = trunc i8 %33 to i1
  %35 = load i32, ptr @boundary, align 4
  %36 = call i32 @get_CDR_enum(ptr noundef %31, ptr noundef %32, i1 noundef zeroext %34, i32 noundef %35)
  store i32 %36, ptr %17, align 4
  %37 = load ptr, ptr %11, align 8
  %38 = load i32, ptr @hf_GIAS_CreateRequest_complete_return, align 4
  %39 = load ptr, ptr %9, align 8
  %40 = load ptr, ptr %13, align 8
  %41 = load i32, ptr %40, align 4
  %42 = sub i32 %41, 4
  %43 = load i32, ptr %17, align 4
  %44 = call ptr @proto_tree_add_uint(ptr noundef %37, i32 noundef %38, ptr noundef %39, i32 noundef %42, i32 noundef 4, i32 noundef %43)
  %45 = load ptr, ptr %9, align 8
  %46 = load ptr, ptr %13, align 8
  %47 = load i8, ptr %16, align 1, !range !6, !noundef !7
  %48 = trunc i8 %47 to i1
  %49 = load i32, ptr @boundary, align 4
  %50 = call i32 @get_CDR_ulong(ptr noundef %45, ptr noundef %46, i1 noundef zeroext %48, i32 noundef %49)
  store i32 %50, ptr %18, align 4
  %51 = load ptr, ptr %11, align 8
  %52 = load i32, ptr @hf_GIAS_CreateRequest_complete_new_products_loop, align 4
  %53 = load ptr, ptr %9, align 8
  %54 = load ptr, ptr %13, align 8
  %55 = load i32, ptr %54, align 4
  %56 = sub i32 %55, 4
  %57 = load i32, ptr %18, align 4
  %58 = call ptr @proto_tree_add_uint(ptr noundef %51, i32 noundef %52, ptr noundef %53, i32 noundef %56, i32 noundef 4, i32 noundef %57)
  call void @llvm.lifetime.start.p0(i64 8, ptr %20) #6
  %59 = load ptr, ptr %11, align 8
  store ptr %59, ptr %20, align 8
  %60 = load ptr, ptr %11, align 8
  %61 = load ptr, ptr %9, align 8
  %62 = load ptr, ptr %13, align 8
  %63 = load i32, ptr %62, align 4
  %64 = load i32, ptr @ett_giop_sequence, align 4
  %65 = call ptr @proto_tree_add_subtree(ptr noundef %60, ptr noundef %61, i32 noundef %63, i32 noundef -1, i32 noundef %64, ptr noundef null, ptr noundef @.str.845)
  store ptr %65, ptr %11, align 8
  store i32 0, ptr %19, align 4
  br label %66

66:                                               ; preds = %78, %30
  %67 = load i32, ptr %19, align 4
  %68 = load i32, ptr %18, align 4
  %69 = icmp ult i32 %67, %68
  br i1 %69, label %70, label %81

70:                                               ; preds = %66
  %71 = load ptr, ptr %9, align 8
  %72 = load ptr, ptr %10, align 8
  %73 = load ptr, ptr %11, align 8
  %74 = load ptr, ptr %13, align 8
  %75 = load i8, ptr %16, align 1, !range !6, !noundef !7
  %76 = trunc i8 %75 to i1
  %77 = load i32, ptr @boundary, align 4
  call void @get_CDR_object(ptr noundef %71, ptr noundef %72, ptr noundef %73, ptr noundef %74, i1 noundef zeroext %76, i32 noundef %77)
  br label %78

78:                                               ; preds = %70
  %79 = load i32, ptr %19, align 4
  %80 = add i32 %79, 1
  store i32 %80, ptr %19, align 4
  br label %66, !llvm.loop !14

81:                                               ; preds = %66
  %82 = load ptr, ptr %20, align 8
  store ptr %82, ptr %11, align 8
  call void @llvm.lifetime.end.p0(i64 8, ptr %20) #6
  br label %90

83:                                               ; preds = %26
  %84 = load ptr, ptr %10, align 8
  %85 = load ptr, ptr %12, align 8
  %86 = load ptr, ptr %14, align 8
  %87 = getelementptr inbounds nuw %struct.MessageHeader, ptr %86, i32 0, i32 6
  %88 = load i32, ptr %87, align 8
  %89 = call ptr (ptr, ptr, ptr, ptr, ...) @expert_add_info_format(ptr noundef %84, ptr noundef %85, ptr noundef @ei_gias_unknown_exception, ptr noundef @.str.826, i32 noundef %88)
  br label %90

90:                                               ; preds = %83, %26, %81
  br label %99

91:                                               ; preds = %8
  %92 = load ptr, ptr %10, align 8
  %93 = load ptr, ptr %12, align 8
  %94 = load ptr, ptr %14, align 8
  %95 = getelementptr inbounds nuw %struct.MessageHeader, ptr %94, i32 0, i32 3
  %96 = load i8, ptr %95, align 1
  %97 = zext i8 %96 to i32
  %98 = call ptr (ptr, ptr, ptr, ptr, ...) @expert_add_info_format(ptr noundef %92, ptr noundef %93, ptr noundef @ei_gias_unknown_giop_msg, ptr noundef @.str.827, i32 noundef %97)
  br label %99

99:                                               ; preds = %91, %90, %8
  call void @llvm.lifetime.end.p0(i64 4, ptr %19) #6
  call void @llvm.lifetime.end.p0(i64 4, ptr %18) #6
  call void @llvm.lifetime.end.p0(i64 4, ptr %17) #6
  ret void
}